Certificate:
    Data:
        Version: 3 (0x2)
        Serial Number: 4097 (0x1001)
    Signature Algorithm: sha1WithRSAEncryption
        Issuer: C=FR, ST=IDF, L=Paris, O=Fake CA for Test, CN=NodeOPCUA
        Validity
            Not Before: Jul 21 13:15:56 2015 GMT
            Not After : Jul 20 13:15:56 2016 GMT
        Subject: O=NodeOPCUA, CN=urn:raspberrypi:NodeOPCUA-Client
        Subject Public Key Info:
            Public Key Algorithm: rsaEncryption
                Public-Key: (2048 bit)
                Modulus:
                    00:a9:29:2e:da:53:69:ee:8f:c9:58:91:7e:51:0c:
                    c7:3f:e8:f4:7b:20:6c:57:a5:e2:a9:03:85:ed:40:
                    66:45:59:98:da:c0:1b:c0:81:1e:06:59:b0:b7:11:
                    71:76:a9:2c:97:6b:87:0e:1e:26:6b:93:34:e9:5c:
                    97:3b:05:52:d6:44:40:fc:5f:5c:3b:25:b2:76:57:
                    38:bb:34:a8:66:ed:a3:c4:44:3c:52:3e:28:1f:00:
                    07:90:49:da:f8:f2:61:69:f0:51:96:03:50:c0:0d:
                    e9:3c:2e:e0:5c:7f:ae:21:c5:21:33:14:d1:ab:a0:
                    d2:c6:a5:b2:28:d2:1c:7c:1d:35:9f:fb:66:46:8a:
                    d1:a3:04:3d:0e:5e:c2:c3:4f:2f:79:5f:73:7b:e0:
                    ff:8e:d7:34:60:6f:7f:c7:9a:fd:1e:36:34:36:9e:
                    2b:04:b6:48:6b:38:bd:4d:de:5d:75:0e:b3:3d:64:
                    93:ec:97:8a:91:8b:11:bb:e5:76:87:8e:b2:8a:f3:
                    8d:4c:ea:73:1c:fc:f2:ac:88:78:68:7a:81:ad:44:
                    25:44:09:ad:ad:77:ea:6b:f3:17:a5:51:e5:a4:c2:
                    ea:64:50:65:fb:ec:e3:56:75:e2:11:ed:ea:ee:b7:
                    7b:da:58:65:aa:df:69:10:20:6c:7f:88:e5:94:ac:
                    56:3f
                Exponent: 65537 (0x10001)
        X509v3 extensions:
            X509v3 Basic Constraints: critical
                CA:FALSE
            X509v3 Subject Key Identifier: 
                40:D9:1D:65:73:8F:19:C5:34:BF:4E:B4:FD:89:08:1F:F5:8C:C7:2F
            X509v3 Authority Key Identifier: 
                keyid:51:95:FC:E3:B5:28:22:8D:57:E9:9E:07:4E:41:6E:F1:29:F5:F5:75
                DirName:/C=FR/ST=IDF/L=Paris/O=Fake CA for Test/CN=NodeOPCUA
                serial:B7:2B:68:09:C5:11:27:1C

            X509v3 Subject Alternative Name: 
                URI:urn:raspberrypi:NodeOPCUA-Client, DNS:localhost, DNS:raspberrypi
            Netscape Comment: 
                OpenSSL Generated Certificate
            X509v3 Key Usage: critical
                Digital Signature, Non Repudiation, Key Encipherment, Data Encipherment, Key Agreement, Certificate Sign
            X509v3 Extended Key Usage: critical
                TLS Web Server Authentication, TLS Web Client Authentication
    Signature Algorithm: sha1WithRSAEncryption
         7e:2e:28:e2:37:fe:a5:b7:9d:86:c3:63:50:d4:bb:33:48:be:
         11:0d:a1:e7:4c:13:c9:87:ed:4f:1e:84:c3:b2:53:8c:8e:45:
         fd:35:49:1f:07:c8:5a:a3:01:63:aa:6f:48:2d:62:3a:d4:0f:
         0b:33:a7:79:57:dc:43:d4:82:77:7a:d5:db:bf:8a:15:ad:33:
         b1:da:33:38:c1:77:c4:ea:e7:ef:e0:91:00:04:cf:78:40:50:
         de:0d:22:2f:80:a1:ac:c6:c5:8a:eb:0c:0d:41:72:01:de:53:
         2b:c7:13:5c:f9:68:fe:c7:de:73:db:a9:60:db:ae:27:61:63:
         48:de:8e:db:88:f0:54:6d:6d:3c:44:ac:e2:4d:00:0c:a6:e8:
         1d:d0:77:f1:5f:ad:b7:ba:b0:c5:8f:48:d2:45:94:7b:1c:c2:
         7b:0c:ee:4a:57:43:b1:30:88:a7:4d:58:89:40:74:e6:57:02:
         9b:bb:2d:67:44:89:b4:c8:9c:7b:c6:91:2f:90:cb:b8:62:0b:
         10:af:42:e3:bd:16:94:95:9e:db:a6:70:d8:64:28:91:70:36:
         98:d2:6c:c2:30:a5:51:af:cd:08:df:c1:c3:94:6b:0e:75:1f:
         1a:3c:1d:50:2c:35:d4:60:7c:3e:84:22:66:be:43:e4:e5:3a:
         8a:d7:28:65
-----BEGIN CERTIFICATE-----
MIIEfDCCA2SgAwIBAgICEAEwDQYJKoZIhvcNAQEFBQAwWjELMAkGA1UEBhMCRlIx
DDAKBgNVBAgTA0lERjEOMAwGA1UEBxMFUGFyaXMxGTAXBgNVBAoTEEZha2UgQ0Eg
Zm9yIFRlc3QxEjAQBgNVBAMTCU5vZGVPUENVQTAeFw0xNTA3MjExMzE1NTZaFw0x
NjA3MjAxMzE1NTZaMD8xEjAQBgNVBAoTCU5vZGVPUENVQTEpMCcGA1UEAxMgdXJu
OnJhc3BiZXJyeXBpOk5vZGVPUENVQS1DbGllbnQwggEiMA0GCSqGSIb3DQEBAQUA
A4IBDwAwggEKAoIBAQCpKS7aU2nuj8lYkX5RDMc/6PR7IGxXpeKpA4XtQGZFWZja
wBvAgR4GWbC3EXF2qSyXa4cOHiZrkzTpXJc7BVLWRED8X1w7JbJ2Vzi7NKhm7aPE
RDxSPigfAAeQSdr48mFp8FGWA1DADek8LuBcf64hxSEzFNGroNLGpbIo0hx8HTWf
+2ZGitGjBD0OXsLDTy95X3N74P+O1zRgb3/Hmv0eNjQ2nisEtkhrOL1N3l11DrM9
ZJPsl4qRixG75XaHjrKK841M6nMc/PKsiHhoeoGtRCVECa2td+pr8xelUeWkwupk
UGX77ONWdeIR7erut3vaWGWq32kQIGx/iOWUrFY/AgMBAAGjggFlMIIBYTAMBgNV
HRMBAf8EAjAAMB0GA1UdDgQWBBRA2R1lc48ZxTS/TrT9iQgf9YzHLzCBjAYDVR0j
BIGEMIGBgBRRlfzjtSgijVfpngdOQW7xKfX1daFepFwwWjELMAkGA1UEBhMCRlIx
DDAKBgNVBAgTA0lERjEOMAwGA1UEBxMFUGFyaXMxGTAXBgNVBAoTEEZha2UgQ0Eg
Zm9yIFRlc3QxEjAQBgNVBAMTCU5vZGVPUENVQYIJALcraAnFESccMEMGA1UdEQQ8
MDqGIHVybjpyYXNwYmVycnlwaTpOb2RlT1BDVUEtQ2xpZW50gglsb2NhbGhvc3SC
C3Jhc3BiZXJyeXBpMCwGCWCGSAGG+EIBDQQfFh1PcGVuU1NMIEdlbmVyYXRlZCBD
ZXJ0aWZpY2F0ZTAOBgNVHQ8BAf8EBAMCAvwwIAYDVR0lAQH/BBYwFAYIKwYBBQUH
AwEGCCsGAQUFBwMCMA0GCSqGSIb3DQEBBQUAA4IBAQB+LijiN/6lt52Gw2NQ1Lsz
SL4RDaHnTBPJh+1PHoTDslOMjkX9NUkfB8haowFjqm9ILWI61A8LM6d5V9xD1IJ3
etXbv4oVrTOx2jM4wXfE6ufv4JEABM94QFDeDSIvgKGsxsWK6wwNQXIB3lMrxxNc
+Wj+x95z26lg264nYWNI3o7biPBUbW08RKziTQAMpugd0HfxX623urDFj0jSRZR7
HMJ7DO5KV0OxMIinTViJQHTmVwKbuy1nRIm0yJx7xpEvkMu4YgsQr0LjvRaUlZ7b
pnDYZCiRcDaY0mzCMKVRr80I38HDlGsOdR8aPB1QLDXUYHw+hCJmvkPk5TqK1yhl
-----END CERTIFICATE-----
