Certificate:
    Data:
        Version: 3 (0x2)
        Serial Number: 4098 (0x1002)
    Signature Algorithm: sha1WithRSAEncryption
        Issuer: O=NodeOPCUA, CN=urn:raspberrypi:NodeOPCUA-Client
        Validity
            Not Before: Jul 21 13:15:56 2015 GMT
            Not After : Jul 20 13:15:56 2016 GMT
        Subject: O=NodeOPCUA, CN=urn:raspberrypi:NodeOPCUA-Client
        Subject Public Key Info:
            Public Key Algorithm: rsaEncryption
                Public-Key: (1024 bit)
                Modulus:
                    00:c1:6d:db:2d:65:24:cb:90:f2:bb:3a:5e:67:74:
                    c1:dd:f4:9d:e7:98:f9:4e:5e:2c:ec:d2:25:f2:88:
                    dd:51:23:6b:97:fc:28:cf:a6:b1:36:d0:98:19:ca:
                    8e:43:f5:d8:7e:e8:32:00:37:28:45:1f:e9:05:8e:
                    01:59:a8:03:5a:b4:0f:b0:79:0e:aa:0d:7a:48:36:
                    9c:73:5c:1b:1a:c8:e6:78:0c:5d:5b:ff:f4:24:8b:
                    c9:1a:74:bb:75:d1:53:3f:1b:cd:35:28:74:22:32:
                    88:6b:cb:9c:56:d1:c6:32:87:57:d1:38:2f:d6:b3:
                    9e:69:d5:ea:82:d9:8c:61:01
                Exponent: 65537 (0x10001)
        X509v3 extensions:
            X509v3 Basic Constraints: critical
                CA:FALSE
            X509v3 Subject Key Identifier: 
                80:2C:FD:10:60:D9:16:C7:E9:21:33:3F:D5:24:5E:F2:A4:7A:77:17
            X509v3 Authority Key Identifier: 
                keyid:80:2C:FD:10:60:D9:16:C7:E9:21:33:3F:D5:24:5E:F2:A4:7A:77:17
                DirName:/O=NodeOPCUA/CN=urn:raspberrypi:NodeOPCUA-Client
                serial:10:02

            X509v3 Subject Alternative Name: 
                URI:urn:raspberrypi:NodeOPCUA-Client, DNS:localhost, DNS:raspberrypi
            Netscape Comment: 
                OpenSSL Generated Certificate
            X509v3 Key Usage: critical
                Digital Signature, Non Repudiation, Key Encipherment, Data Encipherment, Key Agreement, Certificate Sign
            X509v3 Extended Key Usage: critical
                TLS Web Server Authentication, TLS Web Client Authentication
    Signature Algorithm: sha1WithRSAEncryption
         47:fd:c0:51:75:c1:80:17:98:5d:d6:2d:ec:0c:d7:99:9e:d6:
         09:39:63:18:44:58:c3:93:8a:1d:26:39:28:83:17:b9:04:b8:
         f7:61:07:f2:da:cf:bb:54:c3:43:25:1f:1c:12:57:c7:0e:81:
         08:b5:ac:4e:62:fa:cb:3d:25:d9:59:18:60:14:33:a7:49:3e:
         36:41:9b:59:49:26:c4:d0:00:7f:0b:15:9d:af:08:38:74:ad:
         65:b7:b7:ed:ba:7a:ce:17:e0:e2:dd:4f:df:45:cf:eb:3a:23:
         3e:8d:13:80:74:90:73:57:da:f3:ba:9f:c0:7f:dc:c5:1a:bc:
         de:c5
-----BEGIN CERTIFICATE-----
MIIDNzCCAqCgAwIBAgICEAIwDQYJKoZIhvcNAQEFBQAwPzESMBAGA1UEChMJTm9k
ZU9QQ1VBMSkwJwYDVQQDEyB1cm46cmFzcGJlcnJ5cGk6Tm9kZU9QQ1VBLUNsaWVu
dDAeFw0xNTA3MjExMzE1NTZaFw0xNjA3MjAxMzE1NTZaMD8xEjAQBgNVBAoTCU5v
ZGVPUENVQTEpMCcGA1UEAxMgdXJuOnJhc3BiZXJyeXBpOk5vZGVPUENVQS1DbGll
bnQwgZ8wDQYJKoZIhvcNAQEBBQADgY0AMIGJAoGBAMFt2y1lJMuQ8rs6Xmd0wd30
neeY+U5eLOzSJfKI3VEja5f8KM+msTbQmBnKjkP12H7oMgA3KEUf6QWOAVmoA1q0
D7B5DqoNekg2nHNcGxrI5ngMXVv/9CSLyRp0u3XRUz8bzTUodCIyiGvLnFbRxjKH
V9E4L9aznmnV6oLZjGEBAgMBAAGjggFAMIIBPDAMBgNVHRMBAf8EAjAAMB0GA1Ud
DgQWBBSALP0QYNkWx+khMz/VJF7ypHp3FzBoBgNVHSMEYTBfgBSALP0QYNkWx+kh
Mz/VJF7ypHp3F6FDpEEwPzESMBAGA1UEChMJTm9kZU9QQ1VBMSkwJwYDVQQDEyB1
cm46cmFzcGJlcnJ5cGk6Tm9kZU9QQ1VBLUNsaWVudIICEAIwQwYDVR0RBDwwOoYg
dXJuOnJhc3BiZXJyeXBpOk5vZGVPUENVQS1DbGllbnSCCWxvY2FsaG9zdIILcmFz
cGJlcnJ5cGkwLAYJYIZIAYb4QgENBB8WHU9wZW5TU0wgR2VuZXJhdGVkIENlcnRp
ZmljYXRlMA4GA1UdDwEB/wQEAwIC/DAgBgNVHSUBAf8EFjAUBggrBgEFBQcDAQYI
KwYBBQUHAwIwDQYJKoZIhvcNAQEFBQADgYEAR/3AUXXBgBeYXdYt7AzXmZ7WCTlj
GERYw5OKHSY5KIMXuQS492EH8trPu1TDQyUfHBJXxw6BCLWsTmL6yz0l2VkYYBQz
p0k+NkGbWUkmxNAAfwsVna8IOHStZbe37bp6zhfg4t1P30XP6zojPo0TgHSQc1fa
87qfwH/cxRq83sU=
-----END CERTIFICATE-----
