Certificate:
    Data:
        Version: 3 (0x2)
        Serial Number: 4101 (0x1005)
    Signature Algorithm: sha1WithRSAEncryption
        Issuer: C=FR, ST=IDF, L=Paris, O=Fake CA for Test, CN=NodeOPCUA
        Validity
            Not Before: Jul 21 13:15:56 2015 GMT
            Not After : Jul 20 13:15:56 2016 GMT
        Subject: O=NodeOPCUA, CN=urn:raspberrypi:NodeOPCUA-Server
        Subject Public Key Info:
            Public Key Algorithm: rsaEncryption
                Public-Key: (2048 bit)
                Modulus:
                    00:c2:1a:81:cb:9f:de:9d:da:09:60:4f:69:59:f5:
                    e5:d2:13:fb:83:c5:f2:a1:60:6c:eb:a2:a5:12:bc:
                    cf:e9:90:76:6c:2c:e6:20:ba:8f:51:99:be:40:87:
                    d5:eb:39:df:37:bb:c4:c4:2a:8c:ac:62:47:a4:3f:
                    ce:82:6a:77:27:cd:53:26:9f:65:46:d9:a0:8c:70:
                    5a:f4:9e:5f:92:aa:95:9c:cc:ea:c2:85:6c:5d:17:
                    ca:0a:f9:e2:18:6f:ec:49:fb:2f:e7:9a:83:8c:21:
                    0b:c0:a7:56:23:e2:32:ae:f0:05:e8:f0:84:a4:2d:
                    28:bf:5d:a0:ae:ac:76:f9:7c:ac:c8:26:60:f8:e5:
                    06:86:bc:12:70:db:34:37:02:27:27:72:c4:b0:4a:
                    97:58:7d:d0:d9:26:bb:b0:60:4f:5a:fc:3d:bc:d3:
                    16:cb:a2:6e:71:7a:15:86:71:7b:8e:a6:a8:01:ed:
                    5b:0a:59:ff:17:c3:64:81:8a:22:02:93:02:50:7e:
                    9b:4c:76:22:bf:3d:9a:a1:37:21:8f:b4:95:a4:45:
                    f4:c2:47:e2:71:90:57:9f:5f:ce:cb:26:87:dd:6f:
                    01:38:0d:ab:8b:3e:5c:7a:a6:e2:93:0e:23:ed:7b:
                    c3:a3:fa:1f:d5:02:83:8d:dc:54:65:52:cb:4a:9e:
                    e4:cf
                Exponent: 65537 (0x10001)
        X509v3 extensions:
            X509v3 Basic Constraints: critical
                CA:FALSE
            X509v3 Subject Key Identifier: 
                6E:B0:77:AB:36:21:95:02:CB:02:53:B4:70:88:27:39:90:43:33:5C
            X509v3 Authority Key Identifier: 
                keyid:51:95:FC:E3:B5:28:22:8D:57:E9:9E:07:4E:41:6E:F1:29:F5:F5:75
                DirName:/C=FR/ST=IDF/L=Paris/O=Fake CA for Test/CN=NodeOPCUA
                serial:B7:2B:68:09:C5:11:27:1C

            X509v3 Subject Alternative Name: 
                URI:urn:raspberrypi:NodeOPCUA-Server, DNS:localhost, DNS:raspberrypi
            Netscape Comment: 
                OpenSSL Generated Certificate
            X509v3 Key Usage: critical
                Digital Signature, Non Repudiation, Key Encipherment, Data Encipherment, Key Agreement, Certificate Sign
            X509v3 Extended Key Usage: critical
                TLS Web Server Authentication, TLS Web Client Authentication
    Signature Algorithm: sha1WithRSAEncryption
         c6:30:ce:70:05:da:85:32:7b:02:ca:1c:c2:61:e2:ea:69:3c:
         54:ad:5a:a7:f4:e9:60:67:13:86:3a:09:21:cc:76:a6:63:aa:
         01:fa:ab:cc:bf:85:0e:ff:4f:8d:f4:ae:a4:c1:0a:90:bf:de:
         f8:4d:01:92:c3:e3:5b:ce:b0:40:b5:3f:b3:09:76:d8:9d:4c:
         eb:dc:e9:e0:ed:03:8c:ca:76:29:16:a1:bd:01:5a:81:f8:39:
         11:15:5c:38:1c:65:9e:8b:1d:93:b5:ed:66:b0:a5:61:a4:06:
         4a:6a:80:e3:2f:76:e9:17:19:69:6a:1f:7a:1a:56:aa:ee:4b:
         0e:99:f2:ec:65:07:e3:52:d5:0b:c6:02:09:69:62:e8:f6:95:
         42:91:07:3d:31:e5:e4:ca:13:a3:d7:6a:02:84:a5:2f:de:95:
         77:b4:3e:94:3d:4c:33:bd:47:80:19:95:d4:67:d0:e9:05:2e:
         ec:61:2f:fa:c3:d8:f2:29:b4:a9:5a:fe:4b:16:7d:9f:85:02:
         45:f6:58:1e:a6:27:cb:9f:7e:18:55:18:a9:91:47:88:7c:aa:
         a1:28:f3:85:94:ec:b3:20:88:5f:fe:2c:d6:2a:e0:be:9a:ae:
         34:fa:1b:72:36:64:32:71:cf:e1:66:07:56:a3:38:f8:b1:5d:
         89:1b:64:f7
-----BEGIN CERTIFICATE-----
MIIEfDCCA2SgAwIBAgICEAUwDQYJKoZIhvcNAQEFBQAwWjELMAkGA1UEBhMCRlIx
DDAKBgNVBAgTA0lERjEOMAwGA1UEBxMFUGFyaXMxGTAXBgNVBAoTEEZha2UgQ0Eg
Zm9yIFRlc3QxEjAQBgNVBAMTCU5vZGVPUENVQTAeFw0xNTA3MjExMzE1NTZaFw0x
NjA3MjAxMzE1NTZaMD8xEjAQBgNVBAoTCU5vZGVPUENVQTEpMCcGA1UEAxMgdXJu
OnJhc3BiZXJyeXBpOk5vZGVPUENVQS1TZXJ2ZXIwggEiMA0GCSqGSIb3DQEBAQUA
A4IBDwAwggEKAoIBAQDCGoHLn96d2glgT2lZ9eXSE/uDxfKhYGzroqUSvM/pkHZs
LOYguo9Rmb5Ah9XrOd83u8TEKoysYkekP86CancnzVMmn2VG2aCMcFr0nl+SqpWc
zOrChWxdF8oK+eIYb+xJ+y/nmoOMIQvAp1Yj4jKu8AXo8ISkLSi/XaCurHb5fKzI
JmD45QaGvBJw2zQ3AicncsSwSpdYfdDZJruwYE9a/D280xbLom5xehWGcXuOpqgB
7VsKWf8Xw2SBiiICkwJQfptMdiK/PZqhNyGPtJWkRfTCR+JxkFefX87LJofdbwE4
DauLPlx6puKTDiPte8Oj+h/VAoON3FRlUstKnuTPAgMBAAGjggFlMIIBYTAMBgNV
HRMBAf8EAjAAMB0GA1UdDgQWBBRusHerNiGVAssCU7RwiCc5kEMzXDCBjAYDVR0j
BIGEMIGBgBRRlfzjtSgijVfpngdOQW7xKfX1daFepFwwWjELMAkGA1UEBhMCRlIx
DDAKBgNVBAgTA0lERjEOMAwGA1UEBxMFUGFyaXMxGTAXBgNVBAoTEEZha2UgQ0Eg
Zm9yIFRlc3QxEjAQBgNVBAMTCU5vZGVPUENVQYIJALcraAnFESccMEMGA1UdEQQ8
MDqGIHVybjpyYXNwYmVycnlwaTpOb2RlT1BDVUEtU2VydmVygglsb2NhbGhvc3SC
C3Jhc3BiZXJyeXBpMCwGCWCGSAGG+EIBDQQfFh1PcGVuU1NMIEdlbmVyYXRlZCBD
ZXJ0aWZpY2F0ZTAOBgNVHQ8BAf8EBAMCAvwwIAYDVR0lAQH/BBYwFAYIKwYBBQUH
AwEGCCsGAQUFBwMCMA0GCSqGSIb3DQEBBQUAA4IBAQDGMM5wBdqFMnsCyhzCYeLq
aTxUrVqn9OlgZxOGOgkhzHamY6oB+qvMv4UO/0+N9K6kwQqQv974TQGSw+NbzrBA
tT+zCXbYnUzr3Ong7QOMynYpFqG9AVqB+DkRFVw4HGWeix2Tte1msKVhpAZKaoDj
L3bpFxlpah96Glaq7ksOmfLsZQfjUtULxgIJaWLo9pVCkQc9MeXkyhOj12oChKUv
3pV3tD6UPUwzvUeAGZXUZ9DpBS7sYS/6w9jyKbSpWv5LFn2fhQJF9lgepifLn34Y
VRipkUeIfKqhKPOFlOyzIIhf/izWKuC+mq40+htyNmQycc/hZgdWozj4sV2JG2T3
-----END CERTIFICATE-----
