Certificate:
    Data:
        Version: 3 (0x2)
        Serial Number: 4100 (0x1004)
    Signature Algorithm: sha1WithRSAEncryption
        Issuer: C=FR, ST=IDF, L=Paris, O=Fake CA for Test, CN=NodeOPCUA
        Validity
            Not Before: Jul 21 13:15:56 2015 GMT
            Not After : Jul 20 13:15:56 2016 GMT
        Subject: O=NodeOPCUA, CN=urn:raspberrypi:NodeOPCUA-Server
        Subject Public Key Info:
            Public Key Algorithm: rsaEncryption
                Public-Key: (1024 bit)
                Modulus:
                    00:a7:cf:f2:2c:04:94:04:08:43:6d:be:93:90:48:
                    96:17:c7:a5:05:f5:df:9f:cf:4c:0c:b6:39:75:a4:
                    c2:37:93:93:27:ef:2c:98:48:f5:0a:78:ba:38:30:
                    ed:12:7e:8b:9a:a3:5a:a0:85:4e:5b:4d:d6:30:a1:
                    a2:0a:2b:9b:f2:fa:7b:18:b3:a0:2d:72:b6:0e:f4:
                    c8:a1:c9:b2:ff:83:f2:23:d6:4c:c0:5d:64:44:8c:
                    25:e2:0c:e8:85:15:b4:66:ae:7e:5d:b8:9e:1b:b4:
                    23:49:17:85:02:c6:e1:f8:b6:2d:57:15:69:2a:bb:
                    b4:a4:0e:14:e5:ce:92:af:cd
                Exponent: 65537 (0x10001)
        X509v3 extensions:
            X509v3 Basic Constraints: critical
                CA:FALSE
            X509v3 Subject Key Identifier: 
                1A:84:76:BE:0F:CA:F0:FC:0C:0E:17:AD:D1:81:09:47:33:5E:16:CC
            X509v3 Authority Key Identifier: 
                keyid:51:95:FC:E3:B5:28:22:8D:57:E9:9E:07:4E:41:6E:F1:29:F5:F5:75
                DirName:/C=FR/ST=IDF/L=Paris/O=Fake CA for Test/CN=NodeOPCUA
                serial:B7:2B:68:09:C5:11:27:1C

            X509v3 Subject Alternative Name: 
                URI:urn:raspberrypi:NodeOPCUA-Server, DNS:localhost, DNS:raspberrypi
            Netscape Comment: 
                OpenSSL Generated Certificate
            X509v3 Key Usage: critical
                Digital Signature, Non Repudiation, Key Encipherment, Data Encipherment, Key Agreement, Certificate Sign
            X509v3 Extended Key Usage: critical
                TLS Web Server Authentication, TLS Web Client Authentication
    Signature Algorithm: sha1WithRSAEncryption
         0d:4e:f7:3a:a0:4a:6b:9a:5a:06:43:bf:35:67:c9:b5:21:31:
         58:7c:d1:dd:68:69:3d:4f:18:26:e7:b9:2f:f7:5a:92:7a:e9:
         42:89:73:3d:18:77:bc:0b:0c:6c:87:c1:ae:02:a1:0c:43:95:
         3c:f5:d1:d8:e0:73:17:70:75:50:ed:1c:41:61:2c:84:5e:3c:
         97:f8:a6:19:01:6e:07:38:4a:a8:0f:80:ee:0b:56:09:5f:a0:
         e2:19:a7:21:c1:0f:81:34:de:d8:aa:80:40:d0:04:a8:e2:25:
         17:0b:75:6c:4c:99:78:2a:67:0d:ed:9b:c6:77:87:8c:47:64:
         b8:b9:d6:a5:d9:1a:60:ee:91:86:44:06:73:2b:77:4f:7f:9a:
         65:f7:b1:6f:82:6e:c3:66:81:fd:08:b1:fe:73:da:a4:ba:06:
         da:3a:ed:e5:34:e3:89:f2:e1:3a:72:79:9a:65:ca:0d:e8:de:
         20:9a:6c:61:e3:0a:e3:54:fd:d1:e0:ee:8e:bf:72:7a:8c:30:
         08:e3:19:1a:71:a7:be:2a:60:62:0d:f5:bc:0a:23:ec:99:a5:
         5f:70:fa:73:9a:b4:44:0b:46:fa:3f:d8:d5:61:f1:24:8f:92:
         f1:f1:36:b1:e3:54:42:f6:c9:0d:67:6f:5e:a7:7a:c6:2b:ab:
         40:ed:75:62
-----BEGIN CERTIFICATE-----
MIID+DCCAuCgAwIBAgICEAQwDQYJKoZIhvcNAQEFBQAwWjELMAkGA1UEBhMCRlIx
DDAKBgNVBAgTA0lERjEOMAwGA1UEBxMFUGFyaXMxGTAXBgNVBAoTEEZha2UgQ0Eg
Zm9yIFRlc3QxEjAQBgNVBAMTCU5vZGVPUENVQTAeFw0xNTA3MjExMzE1NTZaFw0x
NjA3MjAxMzE1NTZaMD8xEjAQBgNVBAoTCU5vZGVPUENVQTEpMCcGA1UEAxMgdXJu
OnJhc3BiZXJyeXBpOk5vZGVPUENVQS1TZXJ2ZXIwgZ8wDQYJKoZIhvcNAQEBBQAD
gY0AMIGJAoGBAKfP8iwElAQIQ22+k5BIlhfHpQX135/PTAy2OXWkwjeTkyfvLJhI
9Qp4ujgw7RJ+i5qjWqCFTltN1jChogorm/L6exizoC1ytg70yKHJsv+D8iPWTMBd
ZESMJeIM6IUVtGaufl24nhu0I0kXhQLG4fi2LVcVaSq7tKQOFOXOkq/NAgMBAAGj
ggFlMIIBYTAMBgNVHRMBAf8EAjAAMB0GA1UdDgQWBBQahHa+D8rw/AwOF63RgQlH
M14WzDCBjAYDVR0jBIGEMIGBgBRRlfzjtSgijVfpngdOQW7xKfX1daFepFwwWjEL
MAkGA1UEBhMCRlIxDDAKBgNVBAgTA0lERjEOMAwGA1UEBxMFUGFyaXMxGTAXBgNV
BAoTEEZha2UgQ0EgZm9yIFRlc3QxEjAQBgNVBAMTCU5vZGVPUENVQYIJALcraAnF
ESccMEMGA1UdEQQ8MDqGIHVybjpyYXNwYmVycnlwaTpOb2RlT1BDVUEtU2VydmVy
gglsb2NhbGhvc3SCC3Jhc3BiZXJyeXBpMCwGCWCGSAGG+EIBDQQfFh1PcGVuU1NM
IEdlbmVyYXRlZCBDZXJ0aWZpY2F0ZTAOBgNVHQ8BAf8EBAMCAvwwIAYDVR0lAQH/
BBYwFAYIKwYBBQUHAwEGCCsGAQUFBwMCMA0GCSqGSIb3DQEBBQUAA4IBAQANTvc6
oEprmloGQ781Z8m1ITFYfNHdaGk9Txgm57kv91qSeulCiXM9GHe8Cwxsh8GuAqEM
Q5U89dHY4HMXcHVQ7RxBYSyEXjyX+KYZAW4HOEqoD4DuC1YJX6DiGachwQ+BNN7Y
qoBA0ASo4iUXC3VsTJl4KmcN7ZvGd4eMR2S4udal2Rpg7pGGRAZzK3dPf5pl97Fv
gm7DZoH9CLH+c9qkugbaOu3lNOOJ8uE6cnmaZcoN6N4gmmxh4wrjVP3R4O6Ov3J6
jDAI4xkacae+KmBiDfW8CiPsmaVfcPpzmrREC0b6P9jVYfEkj5Lx8Tax41RC9skN
Z29ep3rGK6tA7XVi
-----END CERTIFICATE-----
