Certificate:
    Data:
        Version: 3 (0x2)
        Serial Number: 4102 (0x1006)
    Signature Algorithm: sha1WithRSAEncryption
        Issuer: O=NodeOPCUA, CN=urn:raspberrypi:NodeOPCUA-Server
        Validity
            Not Before: Jul 21 13:15:56 2015 GMT
            Not After : Jul 20 13:15:56 2016 GMT
        Subject: O=NodeOPCUA, CN=urn:raspberrypi:NodeOPCUA-Server
        Subject Public Key Info:
            Public Key Algorithm: rsaEncryption
                Public-Key: (1024 bit)
                Modulus:
                    00:a7:cf:f2:2c:04:94:04:08:43:6d:be:93:90:48:
                    96:17:c7:a5:05:f5:df:9f:cf:4c:0c:b6:39:75:a4:
                    c2:37:93:93:27:ef:2c:98:48:f5:0a:78:ba:38:30:
                    ed:12:7e:8b:9a:a3:5a:a0:85:4e:5b:4d:d6:30:a1:
                    a2:0a:2b:9b:f2:fa:7b:18:b3:a0:2d:72:b6:0e:f4:
                    c8:a1:c9:b2:ff:83:f2:23:d6:4c:c0:5d:64:44:8c:
                    25:e2:0c:e8:85:15:b4:66:ae:7e:5d:b8:9e:1b:b4:
                    23:49:17:85:02:c6:e1:f8:b6:2d:57:15:69:2a:bb:
                    b4:a4:0e:14:e5:ce:92:af:cd
                Exponent: 65537 (0x10001)
        X509v3 extensions:
            X509v3 Basic Constraints: critical
                CA:FALSE
            X509v3 Subject Key Identifier: 
                1A:84:76:BE:0F:CA:F0:FC:0C:0E:17:AD:D1:81:09:47:33:5E:16:CC
            X509v3 Authority Key Identifier: 
                keyid:1A:84:76:BE:0F:CA:F0:FC:0C:0E:17:AD:D1:81:09:47:33:5E:16:CC
                DirName:/O=NodeOPCUA/CN=urn:raspberrypi:NodeOPCUA-Server
                serial:10:06

            X509v3 Subject Alternative Name: 
                URI:urn:raspberrypi:NodeOPCUA-Server, DNS:localhost, DNS:raspberrypi
            Netscape Comment: 
                OpenSSL Generated Certificate
            X509v3 Key Usage: critical
                Digital Signature, Non Repudiation, Key Encipherment, Data Encipherment, Key Agreement, Certificate Sign
            X509v3 Extended Key Usage: critical
                TLS Web Server Authentication, TLS Web Client Authentication
    Signature Algorithm: sha1WithRSAEncryption
         38:1e:9b:b6:48:1c:aa:c5:f7:a3:59:3a:9f:47:41:f9:b1:1d:
         ce:c3:26:28:b4:ab:82:ef:8b:8c:77:be:08:95:40:6e:5e:50:
         f8:b6:2c:72:2c:92:ea:88:3f:d9:41:c6:62:ae:15:e0:c8:f0:
         6d:69:c0:b8:ad:c1:f9:08:de:d5:a7:85:76:2c:2f:2a:f9:59:
         ff:03:40:45:17:59:24:1c:9e:0d:1c:fd:4b:13:64:a2:19:60:
         44:d8:56:ad:e9:ac:6b:5f:38:ea:92:24:12:eb:34:2f:ec:e5:
         98:75:43:8f:bf:e5:0f:64:24:19:a1:f4:a1:1d:11:98:42:34:
         a3:17
-----BEGIN CERTIFICATE-----
MIIDNzCCAqCgAwIBAgICEAYwDQYJKoZIhvcNAQEFBQAwPzESMBAGA1UEChMJTm9k
ZU9QQ1VBMSkwJwYDVQQDEyB1cm46cmFzcGJlcnJ5cGk6Tm9kZU9QQ1VBLVNlcnZl
cjAeFw0xNTA3MjExMzE1NTZaFw0xNjA3MjAxMzE1NTZaMD8xEjAQBgNVBAoTCU5v
ZGVPUENVQTEpMCcGA1UEAxMgdXJuOnJhc3BiZXJyeXBpOk5vZGVPUENVQS1TZXJ2
ZXIwgZ8wDQYJKoZIhvcNAQEBBQADgY0AMIGJAoGBAKfP8iwElAQIQ22+k5BIlhfH
pQX135/PTAy2OXWkwjeTkyfvLJhI9Qp4ujgw7RJ+i5qjWqCFTltN1jChogorm/L6
exizoC1ytg70yKHJsv+D8iPWTMBdZESMJeIM6IUVtGaufl24nhu0I0kXhQLG4fi2
LVcVaSq7tKQOFOXOkq/NAgMBAAGjggFAMIIBPDAMBgNVHRMBAf8EAjAAMB0GA1Ud
DgQWBBQahHa+D8rw/AwOF63RgQlHM14WzDBoBgNVHSMEYTBfgBQahHa+D8rw/AwO
F63RgQlHM14WzKFDpEEwPzESMBAGA1UEChMJTm9kZU9QQ1VBMSkwJwYDVQQDEyB1
cm46cmFzcGJlcnJ5cGk6Tm9kZU9QQ1VBLVNlcnZlcoICEAYwQwYDVR0RBDwwOoYg
dXJuOnJhc3BiZXJyeXBpOk5vZGVPUENVQS1TZXJ2ZXKCCWxvY2FsaG9zdIILcmFz
cGJlcnJ5cGkwLAYJYIZIAYb4QgENBB8WHU9wZW5TU0wgR2VuZXJhdGVkIENlcnRp
ZmljYXRlMA4GA1UdDwEB/wQEAwIC/DAgBgNVHSUBAf8EFjAUBggrBgEFBQcDAQYI
KwYBBQUHAwIwDQYJKoZIhvcNAQEFBQADgYEAOB6btkgcqsX3o1k6n0dB+bEdzsMm
KLSrgu+LjHe+CJVAbl5Q+LYsciyS6og/2UHGYq4V4MjwbWnAuK3B+Qje1aeFdiwv
KvlZ/wNARRdZJByeDRz9SxNkohlgRNhWremsa1846pIkEus0L+zlmHVDj7/lD2Qk
GaH0oR0RmEI0oxc=
-----END CERTIFICATE-----
