Certificate:
    Data:
        Version: 3 (0x2)
        Serial Number: 4096 (0x1000)
    Signature Algorithm: sha1WithRSAEncryption
        Issuer: C=FR, ST=IDF, L=Paris, O=Fake CA for Test, CN=NodeOPCUA
        Validity
            Not Before: Jul 21 13:15:56 2015 GMT
            Not After : Jul 20 13:15:56 2016 GMT
        Subject: O=NodeOPCUA, CN=urn:raspberrypi:NodeOPCUA-Client
        Subject Public Key Info:
            Public Key Algorithm: rsaEncryption
                Public-Key: (1024 bit)
                Modulus:
                    00:c1:6d:db:2d:65:24:cb:90:f2:bb:3a:5e:67:74:
                    c1:dd:f4:9d:e7:98:f9:4e:5e:2c:ec:d2:25:f2:88:
                    dd:51:23:6b:97:fc:28:cf:a6:b1:36:d0:98:19:ca:
                    8e:43:f5:d8:7e:e8:32:00:37:28:45:1f:e9:05:8e:
                    01:59:a8:03:5a:b4:0f:b0:79:0e:aa:0d:7a:48:36:
                    9c:73:5c:1b:1a:c8:e6:78:0c:5d:5b:ff:f4:24:8b:
                    c9:1a:74:bb:75:d1:53:3f:1b:cd:35:28:74:22:32:
                    88:6b:cb:9c:56:d1:c6:32:87:57:d1:38:2f:d6:b3:
                    9e:69:d5:ea:82:d9:8c:61:01
                Exponent: 65537 (0x10001)
        X509v3 extensions:
            X509v3 Basic Constraints: critical
                CA:FALSE
            X509v3 Subject Key Identifier: 
                80:2C:FD:10:60:D9:16:C7:E9:21:33:3F:D5:24:5E:F2:A4:7A:77:17
            X509v3 Authority Key Identifier: 
                keyid:51:95:FC:E3:B5:28:22:8D:57:E9:9E:07:4E:41:6E:F1:29:F5:F5:75
                DirName:/C=FR/ST=IDF/L=Paris/O=Fake CA for Test/CN=NodeOPCUA
                serial:B7:2B:68:09:C5:11:27:1C

            X509v3 Subject Alternative Name: 
                URI:urn:raspberrypi:NodeOPCUA-Client, DNS:localhost, DNS:raspberrypi
            Netscape Comment: 
                OpenSSL Generated Certificate
            X509v3 Key Usage: critical
                Digital Signature, Non Repudiation, Key Encipherment, Data Encipherment, Key Agreement, Certificate Sign
            X509v3 Extended Key Usage: critical
                TLS Web Server Authentication, TLS Web Client Authentication
    Signature Algorithm: sha1WithRSAEncryption
         d1:4a:03:61:44:11:ab:65:23:e0:d7:e5:d5:13:08:ac:b5:03:
         d0:f9:f7:85:c4:8d:45:94:6a:cd:a4:dd:db:7f:14:3e:cc:83:
         77:3b:86:af:b8:be:01:18:89:81:8e:92:d9:62:ec:39:af:fc:
         2a:0d:66:5f:1d:9d:0d:79:4e:73:38:2c:a6:2e:ea:1b:51:57:
         be:21:80:32:5f:1b:65:10:7b:00:43:45:65:eb:60:f4:77:c7:
         78:9a:b4:c4:30:b2:c9:6f:b7:bf:97:aa:78:58:c5:57:0c:3b:
         4d:56:14:0f:80:5f:a4:80:c8:a4:cb:26:9b:98:67:72:9b:42:
         a7:29:6e:6f:cd:25:24:5c:71:9d:0d:b9:c3:86:68:ef:4d:a8:
         68:dc:1c:7e:bb:21:26:26:6c:66:74:a4:b7:b1:c2:bf:ae:56:
         7a:c6:11:9a:57:2a:54:e0:aa:07:73:fb:ec:e8:3c:65:10:52:
         22:6b:9c:38:df:d5:f0:32:e6:1c:c9:c4:81:53:22:bc:4f:d9:
         9f:0e:85:d6:e7:6b:5e:d8:30:01:b9:b3:07:5f:d9:50:85:19:
         49:4b:1b:aa:0a:ba:0f:d7:0b:ff:f2:6c:84:f4:e8:59:8d:38:
         9d:b0:87:fb:bd:8f:48:4a:76:fa:2e:99:d2:39:1b:1a:57:75:
         2d:8b:49:c6
-----BEGIN CERTIFICATE-----
MIID+DCCAuCgAwIBAgICEAAwDQYJKoZIhvcNAQEFBQAwWjELMAkGA1UEBhMCRlIx
DDAKBgNVBAgTA0lERjEOMAwGA1UEBxMFUGFyaXMxGTAXBgNVBAoTEEZha2UgQ0Eg
Zm9yIFRlc3QxEjAQBgNVBAMTCU5vZGVPUENVQTAeFw0xNTA3MjExMzE1NTZaFw0x
NjA3MjAxMzE1NTZaMD8xEjAQBgNVBAoTCU5vZGVPUENVQTEpMCcGA1UEAxMgdXJu
OnJhc3BiZXJyeXBpOk5vZGVPUENVQS1DbGllbnQwgZ8wDQYJKoZIhvcNAQEBBQAD
gY0AMIGJAoGBAMFt2y1lJMuQ8rs6Xmd0wd30neeY+U5eLOzSJfKI3VEja5f8KM+m
sTbQmBnKjkP12H7oMgA3KEUf6QWOAVmoA1q0D7B5DqoNekg2nHNcGxrI5ngMXVv/
9CSLyRp0u3XRUz8bzTUodCIyiGvLnFbRxjKHV9E4L9aznmnV6oLZjGEBAgMBAAGj
ggFlMIIBYTAMBgNVHRMBAf8EAjAAMB0GA1UdDgQWBBSALP0QYNkWx+khMz/VJF7y
pHp3FzCBjAYDVR0jBIGEMIGBgBRRlfzjtSgijVfpngdOQW7xKfX1daFepFwwWjEL
MAkGA1UEBhMCRlIxDDAKBgNVBAgTA0lERjEOMAwGA1UEBxMFUGFyaXMxGTAXBgNV
BAoTEEZha2UgQ0EgZm9yIFRlc3QxEjAQBgNVBAMTCU5vZGVPUENVQYIJALcraAnF
ESccMEMGA1UdEQQ8MDqGIHVybjpyYXNwYmVycnlwaTpOb2RlT1BDVUEtQ2xpZW50
gglsb2NhbGhvc3SCC3Jhc3BiZXJyeXBpMCwGCWCGSAGG+EIBDQQfFh1PcGVuU1NM
IEdlbmVyYXRlZCBDZXJ0aWZpY2F0ZTAOBgNVHQ8BAf8EBAMCAvwwIAYDVR0lAQH/
BBYwFAYIKwYBBQUHAwEGCCsGAQUFBwMCMA0GCSqGSIb3DQEBBQUAA4IBAQDRSgNh
RBGrZSPg1+XVEwistQPQ+feFxI1FlGrNpN3bfxQ+zIN3O4avuL4BGImBjpLZYuw5
r/wqDWZfHZ0NeU5zOCymLuobUVe+IYAyXxtlEHsAQ0Vl62D0d8d4mrTEMLLJb7e/
l6p4WMVXDDtNVhQPgF+kgMikyyabmGdym0KnKW5vzSUkXHGdDbnDhmjvTaho3Bx+
uyEmJmxmdKS3scK/rlZ6xhGaVypU4KoHc/vs6DxlEFIia5w439XwMuYcycSBUyK8
T9mfDoXW52te2DABubMHX9lQhRlJSxuqCroP1wv/8myE9OhZjTidsIf7vY9ISnb6
LpnSORsaV3Uti0nG
-----END CERTIFICATE-----
