Certificate:
    Data:
        Version: 3 (0x2)
        Serial Number: 4099 (0x1003)
    Signature Algorithm: sha1WithRSAEncryption
        Issuer: O=NodeOPCUA, CN=urn:raspberrypi:NodeOPCUA-Client
        Validity
            Not Before: Jul 21 13:15:56 2015 GMT
            Not After : Jul 20 13:15:56 2016 GMT
        Subject: O=NodeOPCUA, CN=urn:raspberrypi:NodeOPCUA-Client
        Subject Public Key Info:
            Public Key Algorithm: rsaEncryption
                Public-Key: (2048 bit)
                Modulus:
                    00:a9:29:2e:da:53:69:ee:8f:c9:58:91:7e:51:0c:
                    c7:3f:e8:f4:7b:20:6c:57:a5:e2:a9:03:85:ed:40:
                    66:45:59:98:da:c0:1b:c0:81:1e:06:59:b0:b7:11:
                    71:76:a9:2c:97:6b:87:0e:1e:26:6b:93:34:e9:5c:
                    97:3b:05:52:d6:44:40:fc:5f:5c:3b:25:b2:76:57:
                    38:bb:34:a8:66:ed:a3:c4:44:3c:52:3e:28:1f:00:
                    07:90:49:da:f8:f2:61:69:f0:51:96:03:50:c0:0d:
                    e9:3c:2e:e0:5c:7f:ae:21:c5:21:33:14:d1:ab:a0:
                    d2:c6:a5:b2:28:d2:1c:7c:1d:35:9f:fb:66:46:8a:
                    d1:a3:04:3d:0e:5e:c2:c3:4f:2f:79:5f:73:7b:e0:
                    ff:8e:d7:34:60:6f:7f:c7:9a:fd:1e:36:34:36:9e:
                    2b:04:b6:48:6b:38:bd:4d:de:5d:75:0e:b3:3d:64:
                    93:ec:97:8a:91:8b:11:bb:e5:76:87:8e:b2:8a:f3:
                    8d:4c:ea:73:1c:fc:f2:ac:88:78:68:7a:81:ad:44:
                    25:44:09:ad:ad:77:ea:6b:f3:17:a5:51:e5:a4:c2:
                    ea:64:50:65:fb:ec:e3:56:75:e2:11:ed:ea:ee:b7:
                    7b:da:58:65:aa:df:69:10:20:6c:7f:88:e5:94:ac:
                    56:3f
                Exponent: 65537 (0x10001)
        X509v3 extensions:
            X509v3 Basic Constraints: critical
                CA:FALSE
            X509v3 Subject Key Identifier: 
                40:D9:1D:65:73:8F:19:C5:34:BF:4E:B4:FD:89:08:1F:F5:8C:C7:2F
            X509v3 Authority Key Identifier: 
                keyid:40:D9:1D:65:73:8F:19:C5:34:BF:4E:B4:FD:89:08:1F:F5:8C:C7:2F
                DirName:/O=NodeOPCUA/CN=urn:raspberrypi:NodeOPCUA-Client
                serial:10:03

            X509v3 Subject Alternative Name: 
                URI:urn:raspberrypi:NodeOPCUA-Client, DNS:localhost, DNS:raspberrypi
            Netscape Comment: 
                OpenSSL Generated Certificate
            X509v3 Key Usage: critical
                Digital Signature, Non Repudiation, Key Encipherment, Data Encipherment, Key Agreement, Certificate Sign
            X509v3 Extended Key Usage: critical
                TLS Web Server Authentication, TLS Web Client Authentication
    Signature Algorithm: sha1WithRSAEncryption
         76:1b:4c:70:e2:6e:ac:89:f6:60:45:79:1b:8b:8d:11:98:4c:
         a3:7e:37:4a:55:b9:cc:43:c7:76:9c:cb:e6:3e:10:9c:7c:fb:
         ed:c5:cd:42:ce:76:1c:2d:05:29:47:d3:11:a5:18:06:3e:07:
         40:e1:57:59:5e:40:b8:ff:8f:01:2a:a5:f9:05:44:80:4b:85:
         5c:78:56:bf:e5:cf:02:87:34:3b:ed:ac:8e:89:e2:9f:73:66:
         b9:2e:ed:4a:32:06:3b:9d:da:7a:41:79:de:94:91:cb:a9:14:
         b3:e5:c9:84:19:d0:8f:54:40:8a:81:7c:22:99:3a:ed:63:45:
         f8:77:bc:86:34:f7:99:84:0b:ae:73:8b:72:3c:8c:1b:4d:ea:
         10:f1:2c:40:4f:22:29:da:c9:ff:4a:00:e8:0e:ba:34:5a:ae:
         5f:37:76:4e:c3:fe:97:2c:9b:40:f3:d8:da:29:67:eb:8b:87:
         27:de:2c:c5:8d:5a:52:23:f8:0f:c4:3f:fe:a9:36:3e:0e:0b:
         33:f6:aa:24:1e:81:ce:30:46:d2:92:a1:4e:f2:44:de:50:75:
         46:79:a5:79:a2:f3:d7:10:d9:f4:13:4d:1f:d6:54:56:72:bd:
         c2:7d:37:49:1e:5b:31:ff:3a:5c:f9:e3:5b:d8:06:23:90:c3:
         6f:ea:c8:da
-----BEGIN CERTIFICATE-----
MIIEPDCCAySgAwIBAgICEAMwDQYJKoZIhvcNAQEFBQAwPzESMBAGA1UEChMJTm9k
ZU9QQ1VBMSkwJwYDVQQDEyB1cm46cmFzcGJlcnJ5cGk6Tm9kZU9QQ1VBLUNsaWVu
dDAeFw0xNTA3MjExMzE1NTZaFw0xNjA3MjAxMzE1NTZaMD8xEjAQBgNVBAoTCU5v
ZGVPUENVQTEpMCcGA1UEAxMgdXJuOnJhc3BiZXJyeXBpOk5vZGVPUENVQS1DbGll
bnQwggEiMA0GCSqGSIb3DQEBAQUAA4IBDwAwggEKAoIBAQCpKS7aU2nuj8lYkX5R
DMc/6PR7IGxXpeKpA4XtQGZFWZjawBvAgR4GWbC3EXF2qSyXa4cOHiZrkzTpXJc7
BVLWRED8X1w7JbJ2Vzi7NKhm7aPERDxSPigfAAeQSdr48mFp8FGWA1DADek8LuBc
f64hxSEzFNGroNLGpbIo0hx8HTWf+2ZGitGjBD0OXsLDTy95X3N74P+O1zRgb3/H
mv0eNjQ2nisEtkhrOL1N3l11DrM9ZJPsl4qRixG75XaHjrKK841M6nMc/PKsiHho
eoGtRCVECa2td+pr8xelUeWkwupkUGX77ONWdeIR7erut3vaWGWq32kQIGx/iOWU
rFY/AgMBAAGjggFAMIIBPDAMBgNVHRMBAf8EAjAAMB0GA1UdDgQWBBRA2R1lc48Z
xTS/TrT9iQgf9YzHLzBoBgNVHSMEYTBfgBRA2R1lc48ZxTS/TrT9iQgf9YzHL6FD
pEEwPzESMBAGA1UEChMJTm9kZU9QQ1VBMSkwJwYDVQQDEyB1cm46cmFzcGJlcnJ5
cGk6Tm9kZU9QQ1VBLUNsaWVudIICEAMwQwYDVR0RBDwwOoYgdXJuOnJhc3BiZXJy
eXBpOk5vZGVPUENVQS1DbGllbnSCCWxvY2FsaG9zdIILcmFzcGJlcnJ5cGkwLAYJ
YIZIAYb4QgENBB8WHU9wZW5TU0wgR2VuZXJhdGVkIENlcnRpZmljYXRlMA4GA1Ud
DwEB/wQEAwIC/DAgBgNVHSUBAf8EFjAUBggrBgEFBQcDAQYIKwYBBQUHAwIwDQYJ
KoZIhvcNAQEFBQADggEBAHYbTHDibqyJ9mBFeRuLjRGYTKN+N0pVucxDx3acy+Y+
EJx8++3FzULOdhwtBSlH0xGlGAY+B0DhV1leQLj/jwEqpfkFRIBLhVx4Vr/lzwKH
NDvtrI6J4p9zZrku7UoyBjud2npBed6UkcupFLPlyYQZ0I9UQIqBfCKZOu1jRfh3
vIY095mEC65zi3I8jBtN6hDxLEBPIinayf9KAOgOujRarl83dk7D/pcsm0Dz2Nop
Z+uLhyfeLMWNWlIj+A/EP/6pNj4OCzP2qiQegc4wRtKSoU7yRN5QdUZ5pXmi89cQ
2fQTTR/WVFZyvcJ9N0keWzH/Olz541vYBiOQw2/qyNo=
-----END CERTIFICATE-----
