Certificate:
    Data:
        Version: 3 (0x2)
        Serial Number: 4103 (0x1007)
    Signature Algorithm: sha1WithRSAEncryption
        Issuer: O=NodeOPCUA, CN=urn:raspberrypi:NodeOPCUA-Server
        Validity
            Not Before: Jul 21 13:15:56 2015 GMT
            Not After : Jul 20 13:15:56 2016 GMT
        Subject: O=NodeOPCUA, CN=urn:raspberrypi:NodeOPCUA-Server
        Subject Public Key Info:
            Public Key Algorithm: rsaEncryption
                Public-Key: (2048 bit)
                Modulus:
                    00:c2:1a:81:cb:9f:de:9d:da:09:60:4f:69:59:f5:
                    e5:d2:13:fb:83:c5:f2:a1:60:6c:eb:a2:a5:12:bc:
                    cf:e9:90:76:6c:2c:e6:20:ba:8f:51:99:be:40:87:
                    d5:eb:39:df:37:bb:c4:c4:2a:8c:ac:62:47:a4:3f:
                    ce:82:6a:77:27:cd:53:26:9f:65:46:d9:a0:8c:70:
                    5a:f4:9e:5f:92:aa:95:9c:cc:ea:c2:85:6c:5d:17:
                    ca:0a:f9:e2:18:6f:ec:49:fb:2f:e7:9a:83:8c:21:
                    0b:c0:a7:56:23:e2:32:ae:f0:05:e8:f0:84:a4:2d:
                    28:bf:5d:a0:ae:ac:76:f9:7c:ac:c8:26:60:f8:e5:
                    06:86:bc:12:70:db:34:37:02:27:27:72:c4:b0:4a:
                    97:58:7d:d0:d9:26:bb:b0:60:4f:5a:fc:3d:bc:d3:
                    16:cb:a2:6e:71:7a:15:86:71:7b:8e:a6:a8:01:ed:
                    5b:0a:59:ff:17:c3:64:81:8a:22:02:93:02:50:7e:
                    9b:4c:76:22:bf:3d:9a:a1:37:21:8f:b4:95:a4:45:
                    f4:c2:47:e2:71:90:57:9f:5f:ce:cb:26:87:dd:6f:
                    01:38:0d:ab:8b:3e:5c:7a:a6:e2:93:0e:23:ed:7b:
                    c3:a3:fa:1f:d5:02:83:8d:dc:54:65:52:cb:4a:9e:
                    e4:cf
                Exponent: 65537 (0x10001)
        X509v3 extensions:
            X509v3 Basic Constraints: critical
                CA:FALSE
            X509v3 Subject Key Identifier: 
                6E:B0:77:AB:36:21:95:02:CB:02:53:B4:70:88:27:39:90:43:33:5C
            X509v3 Authority Key Identifier: 
                keyid:6E:B0:77:AB:36:21:95:02:CB:02:53:B4:70:88:27:39:90:43:33:5C
                DirName:/O=NodeOPCUA/CN=urn:raspberrypi:NodeOPCUA-Server
                serial:10:07

            X509v3 Subject Alternative Name: 
                URI:urn:raspberrypi:NodeOPCUA-Server, DNS:localhost, DNS:raspberrypi
            Netscape Comment: 
                OpenSSL Generated Certificate
            X509v3 Key Usage: critical
                Digital Signature, Non Repudiation, Key Encipherment, Data Encipherment, Key Agreement, Certificate Sign
            X509v3 Extended Key Usage: critical
                TLS Web Server Authentication, TLS Web Client Authentication
    Signature Algorithm: sha1WithRSAEncryption
         78:9a:fd:7f:40:35:99:53:6d:15:4e:ad:02:0c:1b:a6:96:c3:
         18:45:93:ab:4e:cb:e0:20:b1:63:57:db:25:4c:28:ed:26:54:
         5c:1e:ea:f8:f6:11:5c:d0:a4:f8:73:5b:62:d4:21:0e:52:8c:
         7c:d1:de:0c:17:07:27:72:74:4a:8a:68:ab:28:5e:6e:7b:29:
         47:d7:ab:84:bf:b8:13:20:76:f1:65:7e:28:d3:45:52:a7:8c:
         ca:a4:84:2a:bb:10:e9:77:17:2a:a4:56:85:12:b6:9a:2f:37:
         dd:81:f8:1f:0a:6d:b0:7f:be:72:6e:36:cb:f5:00:09:6f:98:
         d3:cf:c8:d7:cb:40:35:3f:64:82:41:ff:59:49:b1:92:64:bc:
         52:56:7b:f6:1d:5d:8a:a9:8c:28:95:37:15:4b:06:75:73:27:
         7d:40:47:a4:97:95:1e:31:c3:50:7d:c2:d9:6e:da:46:7b:80:
         60:dd:02:72:13:de:7c:92:e5:bf:ee:58:f8:3f:47:9f:1a:af:
         b3:c0:84:59:3f:b4:47:34:a2:b8:b6:18:f5:78:2d:83:0a:14:
         25:ca:44:7e:38:8b:d8:a8:a3:7d:79:ad:cf:55:fb:02:d1:68:
         4a:4c:80:d4:ef:a6:03:8e:7a:bf:72:93:3f:94:47:d5:09:38:
         d1:66:cf:af
-----BEGIN CERTIFICATE-----
MIIEPDCCAySgAwIBAgICEAcwDQYJKoZIhvcNAQEFBQAwPzESMBAGA1UEChMJTm9k
ZU9QQ1VBMSkwJwYDVQQDEyB1cm46cmFzcGJlcnJ5cGk6Tm9kZU9QQ1VBLVNlcnZl
cjAeFw0xNTA3MjExMzE1NTZaFw0xNjA3MjAxMzE1NTZaMD8xEjAQBgNVBAoTCU5v
ZGVPUENVQTEpMCcGA1UEAxMgdXJuOnJhc3BiZXJyeXBpOk5vZGVPUENVQS1TZXJ2
ZXIwggEiMA0GCSqGSIb3DQEBAQUAA4IBDwAwggEKAoIBAQDCGoHLn96d2glgT2lZ
9eXSE/uDxfKhYGzroqUSvM/pkHZsLOYguo9Rmb5Ah9XrOd83u8TEKoysYkekP86C
ancnzVMmn2VG2aCMcFr0nl+SqpWczOrChWxdF8oK+eIYb+xJ+y/nmoOMIQvAp1Yj
4jKu8AXo8ISkLSi/XaCurHb5fKzIJmD45QaGvBJw2zQ3AicncsSwSpdYfdDZJruw
YE9a/D280xbLom5xehWGcXuOpqgB7VsKWf8Xw2SBiiICkwJQfptMdiK/PZqhNyGP
tJWkRfTCR+JxkFefX87LJofdbwE4DauLPlx6puKTDiPte8Oj+h/VAoON3FRlUstK
nuTPAgMBAAGjggFAMIIBPDAMBgNVHRMBAf8EAjAAMB0GA1UdDgQWBBRusHerNiGV
AssCU7RwiCc5kEMzXDBoBgNVHSMEYTBfgBRusHerNiGVAssCU7RwiCc5kEMzXKFD
pEEwPzESMBAGA1UEChMJTm9kZU9QQ1VBMSkwJwYDVQQDEyB1cm46cmFzcGJlcnJ5
cGk6Tm9kZU9QQ1VBLVNlcnZlcoICEAcwQwYDVR0RBDwwOoYgdXJuOnJhc3BiZXJy
eXBpOk5vZGVPUENVQS1TZXJ2ZXKCCWxvY2FsaG9zdIILcmFzcGJlcnJ5cGkwLAYJ
YIZIAYb4QgENBB8WHU9wZW5TU0wgR2VuZXJhdGVkIENlcnRpZmljYXRlMA4GA1Ud
DwEB/wQEAwIC/DAgBgNVHSUBAf8EFjAUBggrBgEFBQcDAQYIKwYBBQUHAwIwDQYJ
KoZIhvcNAQEFBQADggEBAHia/X9ANZlTbRVOrQIMG6aWwxhFk6tOy+AgsWNX2yVM
KO0mVFwe6vj2EVzQpPhzW2LUIQ5SjHzR3gwXBydydEqKaKsoXm57KUfXq4S/uBMg
dvFlfijTRVKnjMqkhCq7EOl3FyqkVoUStpovN92B+B8KbbB/vnJuNsv1AAlvmNPP
yNfLQDU/ZIJB/1lJsZJkvFJWe/YdXYqpjCiVNxVLBnVzJ31AR6SXlR4xw1B9wtlu
2kZ7gGDdAnIT3nyS5b/uWPg/R58ar7PAhFk/tEc0ori2GPV4LYMKFCXKRH44i9io
o315rc9V+wLRaEpMgNTvpgOOer9ykz+UR9UJONFmz68=
-----END CERTIFICATE-----
